; Function Attrs: nounwind uwtable
define internal void @spatial_compose_dirac53i_dy_10bit(ptr noundef captures(none) %0, i32 noundef %1, i32 noundef %2, i32 noundef %3, i32 noundef %4) #0 {
  %6 = getelementptr inbounds nuw i8, ptr %0, i64 48
  %7 = load ptr, ptr %6, align 8, !tbaa !29
  %8 = getelementptr inbounds nuw i8, ptr %0, i64 56
  %9 = load ptr, ptr %8, align 8, !tbaa !29
  %10 = getelementptr inbounds nuw i8, ptr %0, i64 96
  %11 = sext i32 %1 to i64
  %12 = getelementptr inbounds %struct.DWTCompose, ptr %10, i64 %11
  %13 = getelementptr inbounds nuw i8, ptr %12, i64 64
  %14 = load i32, ptr %13, align 8, !tbaa !23
  %15 = load ptr, ptr %12, align 8, !tbaa !22
  %16 = getelementptr inbounds nuw i8, ptr %12, i64 8
  %17 = load ptr, ptr %16, align 8, !tbaa !22
  %18 = load ptr, ptr %0, align 8, !tbaa !11
  %19 = add nsw i32 %14, 1
  %20 = add nsw i32 %3, -1
  %.not.i37 = icmp eq i32 %20, 0
  br i1 %.not.i37, label %avpriv_mirror.exit, label %.preheader

.preheader:                                       ; preds = %5
  %21 = icmp ugt i32 %19, %20
  br i1 %21, label %.lr.ph, label %avpriv_mirror.exit42

.lr.ph:                                           ; preds = %.preheader
  %22 = shl nsw i32 %20, 1
  br label %23

23:                                               ; preds = %.lr.ph, %23
  %.09.i3844 = phi i32 [ %19, %.lr.ph ], [ %.1.i41, %23 ]
  %24 = icmp sgt i32 %.09.i3844, 0
  %spec.select.i40 = select i1 %24, i32 %22, i32 0
  %.1.i41 = sub nsw i32 %spec.select.i40, %.09.i3844
  %25 = icmp ugt i32 %.1.i41, %20
  br i1 %25, label %23, label %avpriv_mirror.exit42, !llvm.loop !27

avpriv_mirror.exit42:                             ; preds = %23, %.preheader
  %.09.i38.lcssa = phi i32 [ %19, %.preheader ], [ %.1.i41, %23 ]
  %26 = mul nsw i32 %.09.i38.lcssa, %4
  %27 = sext i32 %26 to i64
  %28 = getelementptr inbounds i8, ptr %18, i64 %27
  %29 = add nsw i32 %14, 2
  %30 = icmp ugt i32 %29, %20
  br i1 %30, label %.lr.ph46, label %avpriv_mirror.exit

.lr.ph46:                                         ; preds = %avpriv_mirror.exit42
  %31 = shl nsw i32 %20, 1
  br label %32

32:                                               ; preds = %.lr.ph46, %32
  %.09.i45 = phi i32 [ %29, %.lr.ph46 ], [ %.1.i, %32 ]
  %33 = icmp sgt i32 %.09.i45, 0
  %spec.select.i = select i1 %33, i32 %31, i32 0
  %.1.i = sub nsw i32 %spec.select.i, %.09.i45
  %34 = icmp ugt i32 %.1.i, %20
  br i1 %34, label %32, label %avpriv_mirror.exit, !llvm.loop !27

avpriv_mirror.exit:                               ; preds = %32, %5, %avpriv_mirror.exit42
  %35 = phi ptr [ %28, %avpriv_mirror.exit42 ], [ %18, %5 ], [ %28, %32 ]
  %.0.i = phi i32 [ %29, %avpriv_mirror.exit42 ], [ 0, %5 ], [ %.1.i, %32 ]
  %36 = mul nsw i32 %.0.i, %4
  %37 = sext i32 %36 to i64
  %38 = getelementptr inbounds i8, ptr %18, i64 %37
  %39 = icmp ult i32 %19, %3
  br i1 %39, label %40, label %41

40:                                               ; preds = %avpriv_mirror.exit
  tail call void %7(ptr noundef %17, ptr noundef %35, ptr noundef %38, i32 noundef %2) #6
  br label %41

41:                                               ; preds = %40, %avpriv_mirror.exit
  %42 = icmp ult i32 %14, %3
  br i1 %42, label %43, label %44

43:                                               ; preds = %41
  tail call void %9(ptr noundef %15, ptr noundef %17, ptr noundef %35, i32 noundef %2) #6
  br label %44

44:                                               ; preds = %43, %41
  %45 = add nsw i32 %14, -1
  %46 = icmp ult i32 %45, %3
  br i1 %46, label %47, label %52

47:                                               ; preds = %44
  %48 = getelementptr inbounds nuw i8, ptr %0, i64 88
  %49 = load ptr, ptr %48, align 8, !tbaa !33
  %50 = getelementptr inbounds nuw i8, ptr %0, i64 8
  %51 = load ptr, ptr %50, align 8, !tbaa !20
  tail call void %49(ptr noundef %15, ptr noundef %51, i32 noundef %2) #6
  br label %52

52:                                               ; preds = %47, %44
  br i1 %42, label %53, label %58

53:                                               ; preds = %52
  %54 = getelementptr inbounds nuw i8, ptr %0, i64 88
  %55 = load ptr, ptr %54, align 8, !tbaa !33
  %56 = getelementptr inbounds nuw i8, ptr %0, i64 8
  %57 = load ptr, ptr %56, align 8, !tbaa !20
  tail call void %55(ptr noundef %17, ptr noundef %57, i32 noundef %2) #6
  br label %58

58:                                               ; preds = %53, %52
  store ptr %35, ptr %12, align 8, !tbaa !22
  store ptr %38, ptr %16, align 8, !tbaa !22
  %59 = load i32, ptr %13, align 8, !tbaa !23
  %60 = add nsw i32 %59, 2
  store i32 %60, ptr %13, align 8, !tbaa !23
  ret void
}